target datalayout = "e-m:e-p270:32:32-p271:32:32-p272:64:64-i64:64-i128:128-f80:128-n8:16:32:64-S128"
target triple = "x86_64-pc-linux-gnu"

%struct.AVCodecDescriptor = type { i32, i32, ptr, ptr, i32, ptr, ptr }

; Function Attrs: nounwind uwtable
define i32 @ff_is_intra_only(i32 noundef %0) #0 {
  %2 = alloca i32, align 4
  %3 = alloca i32, align 4
  %4 = alloca ptr, align 8
  %5 = alloca i32, align 4
  store i32 %0, ptr %3, align 4, !tbaa !74
  call void @llvm.lifetime.start.p0(i64 8, ptr %4) #11
  %6 = load i32, ptr %3, align 4, !tbaa !74
  %7 = call ptr @avcodec_descriptor_get(i32 noundef %6)
  store ptr %7, ptr %4, align 8, !tbaa !162
  %8 = load ptr, ptr %4, align 8, !tbaa !162
  %9 = icmp ne ptr %8, null
  br i1 %9, label %11, label %10

10:                                               ; preds = %1
  store i32 0, ptr %2, align 4
  store i32 1, ptr %5, align 4
  br label %29

11:                                               ; preds = %1
  %12 = load ptr, ptr %4, align 8, !tbaa !162
  %13 = getelementptr inbounds nuw %struct.AVCodecDescriptor, ptr %12, i32 0, i32 1
  %14 = load i32, ptr %13, align 4, !tbaa !178
  %15 = icmp eq i32 %14, 0
  br i1 %15, label %21, label %16

16:                                               ; preds = %11
  %17 = load ptr, ptr %4, align 8, !tbaa !162
  %18 = getelementptr inbounds nuw %struct.AVCodecDescriptor, ptr %17, i32 0, i32 1
  %19 = load i32, ptr %18, align 4, !tbaa !178
  %20 = icmp eq i32 %19, 1
  br i1 %20, label %21, label %28

21:                                               ; preds = %16, %11
  %22 = load ptr, ptr %4, align 8, !tbaa !162
  %23 = getelementptr inbounds nuw %struct.AVCodecDescriptor, ptr %22, i32 0, i32 4
  %24 = load i32, ptr %23, align 8, !tbaa !163
  %25 = and i32 %24, 1
  %26 = icmp ne i32 %25, 0
  br i1 %26, label %28, label %27

27:                                               ; preds = %21
  store i32 0, ptr %2, align 4
  store i32 1, ptr %5, align 4
  br label %29

28:                                               ; preds = %21, %16
  store i32 1, ptr %2, align 4
  store i32 1, ptr %5, align 4
  br label %29

29:                                               ; preds = %28, %27, %10
  call void @llvm.lifetime.end.p0(i64 8, ptr %4) #11
  %30 = load i32, ptr %2, align 4
  ret i32 %30
}