; Function Attrs: nounwind uwtable
define range(i32 0, 2) i32 @ff_is_intra_only(i32 noundef %0) local_unnamed_addr #0 {
  %2 = tail call ptr @avcodec_descriptor_get(i32 noundef %0) #13
  %.not = icmp eq ptr %2, null
  br i1 %.not, label %11, label %3

3:                                                ; preds = %1
  %4 = getelementptr inbounds nuw i8, ptr %2, i64 4
  %5 = load i32, ptr %4, align 4, !tbaa !152
  %switch = icmp ult i32 %5, 2
  br i1 %switch, label %6, label %10

6:                                                ; preds = %3
  %7 = getelementptr inbounds nuw i8, ptr %2, i64 24
  %8 = load i32, ptr %7, align 8, !tbaa !137
  %9 = and i32 %8, 1
  %.not7 = icmp eq i32 %9, 0
  br i1 %.not7, label %11, label %10

10:                                               ; preds = %3, %6
  br label %11

11:                                               ; preds = %6, %1, %10
  %.0 = phi i32 [ 1, %10 ], [ 0, %1 ], [ 0, %6 ]
  ret i32 %.0
}